; Function Attrs: mustprogress nofree norecurse nosync nounwind memory(read, argmem: readwrite, inaccessiblemem: none) uwtable
define hidden void @_ZN13ImageLocation8set_dataEPh(ptr nocapture noundef nonnull writeonly align 8 dereferenceable(64) %0, ptr noundef readonly %1) local_unnamed_addr #2 align 2 {
  %.not12 = icmp eq ptr %1, null
  br i1 %.not12, label %.critedge, label %.lr.ph.preheader

.lr.ph.preheader:                                 ; preds = %2
  %3 = load i8, ptr %1, align 1
  %.not1116 = icmp eq i8 %3, 0
  br i1 %.not1116, label %.critedge, label %.lr.ph18

.lr.ph18:                                         ; preds = %.lr.ph.preheader, %_ZN13ImageLocation15attribute_valueEPhh.exit
  %4 = phi i8 [ %19, %_ZN13ImageLocation15attribute_valueEPhh.exit ], [ %3, %.lr.ph.preheader ]
  %.01317 = phi ptr [ %18, %_ZN13ImageLocation15attribute_valueEPhh.exit ], [ %1, %.lr.ph.preheader ]
  %5 = lshr i8 %4, 3
  %6 = icmp ult i8 %4, 8
  br i1 %6, label %.critedge, label %7

7:                                                ; preds = %.lr.ph18
  %8 = and i8 %4, 7
  %narrow.i = add nuw nsw i8 %8, 1
  %9 = getelementptr inbounds i8, ptr %.01317, i64 1
  %wide.trip.count.i = zext nneg i8 %narrow.i to i64
  br label %.lr.ph.i

.lr.ph.i:                                         ; preds = %.lr.ph.i, %7
  %indvars.iv.i = phi i64 [ 0, %7 ], [ %indvars.iv.next.i, %.lr.ph.i ]
  %.078.i = phi i64 [ 0, %7 ], [ %14, %.lr.ph.i ]
  %10 = shl i64 %.078.i, 8
  %11 = getelementptr inbounds i8, ptr %9, i64 %indvars.iv.i
  %12 = load i8, ptr %11, align 1
  %13 = zext i8 %12 to i64
  %14 = or disjoint i64 %10, %13
  %indvars.iv.next.i = add nuw nsw i64 %indvars.iv.i, 1
  %exitcond.not.i = icmp eq i64 %indvars.iv.next.i, %wide.trip.count.i
  br i1 %exitcond.not.i, label %_ZN13ImageLocation15attribute_valueEPhh.exit, label %.lr.ph.i, !llvm.loop !9

_ZN13ImageLocation15attribute_valueEPhh.exit:     ; preds = %.lr.ph.i
  %15 = zext nneg i8 %5 to i64
  %16 = getelementptr inbounds [8 x i64], ptr %0, i64 0, i64 %15
  store i64 %14, ptr %16, align 8
  %17 = add nuw nsw i64 %wide.trip.count.i, 1
  %18 = getelementptr inbounds i8, ptr %.01317, i64 %17
  %19 = load i8, ptr %18, align 1
  %.not11 = icmp eq i8 %19, 0
  br i1 %.not11, label %.critedge, label %.lr.ph18

.critedge:                                        ; preds = %.lr.ph18, %_ZN13ImageLocation15attribute_valueEPhh.exit, %.lr.ph.preheader, %2
  ret void
}